; Function Attrs: nounwind uwtable
define ptr @l_Lean_Compiler_LCNF_PullLetDecls_withNewScope___rarg(ptr noundef %0, ptr noundef %1, ptr noundef %2, ptr noundef %3, ptr noundef %4, ptr noundef %5, ptr noundef %6, ptr noundef %7) #0 {
  %.val = load i32, ptr %1, align 4, !tbaa !4
  %9 = icmp eq i32 %.val, 1
  br i1 %9, label %10, label %22

10:                                               ; preds = %8
  %11 = getelementptr inbounds nuw i8, ptr %1, i64 16
  %12 = load ptr, ptr %11, align 8, !tbaa !9
  %13 = ptrtoint ptr %12 to i64
  %14 = and i64 %13, 1
  %.not36 = icmp eq i64 %14, 0
  br i1 %.not36, label %15, label %lean_dec.exit31

15:                                               ; preds = %10
  %16 = load i32, ptr %12, align 4, !tbaa !4
  %17 = icmp sgt i32 %16, 1
  br i1 %17, label %18, label %20, !prof !11

18:                                               ; preds = %15
  %19 = add nsw i32 %16, -1
  store i32 %19, ptr %12, align 4, !tbaa !4
  br label %lean_dec.exit31

20:                                               ; preds = %15
  %.not.i = icmp eq i32 %16, 0
  br i1 %.not.i, label %lean_dec.exit31, label %21

21:                                               ; preds = %20
  tail call void @lean_dec_ref_cold(ptr noundef nonnull %12) #4
  br label %lean_dec.exit31

lean_dec.exit31:                                  ; preds = %21, %20, %18, %10
  store ptr inttoptr (i64 1 to ptr), ptr %11, align 8, !tbaa !9
  br label %48

22:                                               ; preds = %8
  %23 = getelementptr inbounds nuw i8, ptr %1, i64 8
  %24 = load ptr, ptr %23, align 8, !tbaa !9
  %25 = ptrtoint ptr %24 to i64
  %26 = and i64 %25, 1
  %.not = icmp eq i64 %26, 0
  br i1 %.not, label %27, label %lean_inc.exit

27:                                               ; preds = %22
  %.val.i = load i32, ptr %24, align 4, !tbaa !4
  %28 = icmp sgt i32 %.val.i, 0
  br i1 %28, label %29, label %31, !prof !11

29:                                               ; preds = %27
  %30 = add nuw i32 %.val.i, 1
  store i32 %30, ptr %24, align 4, !tbaa !4
  br label %lean_inc.exit

31:                                               ; preds = %27
  %.not.i34 = icmp eq i32 %.val.i, 0
  br i1 %.not.i34, label %lean_inc.exit, label %32

32:                                               ; preds = %31
  tail call void @lean_inc_ref_cold(ptr noundef nonnull %24) #4
  br label %lean_inc.exit

lean_inc.exit:                                    ; preds = %32, %31, %29, %22
  %33 = ptrtoint ptr %1 to i64
  %34 = and i64 %33, 1
  %.not35 = icmp eq i64 %34, 0
  br i1 %.not35, label %35, label %lean_dec.exit

35:                                               ; preds = %lean_inc.exit
  %36 = load i32, ptr %1, align 4, !tbaa !4
  %37 = icmp sgt i32 %36, 1
  br i1 %37, label %38, label %40, !prof !11

38:                                               ; preds = %35
  %39 = add nsw i32 %36, -1
  store i32 %39, ptr %1, align 4, !tbaa !4
  br label %lean_dec.exit

40:                                               ; preds = %35
  %.not.i32 = icmp eq i32 %36, 0
  br i1 %.not.i32, label %lean_dec.exit, label %41

41:                                               ; preds = %40
  tail call void @lean_dec_ref_cold(ptr noundef nonnull %1) #4
  br label %lean_dec.exit

lean_dec.exit:                                    ; preds = %41, %40, %38, %lean_inc.exit
  tail call void @lean_inc_heartbeat() #4
  %42 = tail call noalias ptr @mi_malloc_small(i64 noundef 24) #4
  %43 = icmp eq ptr %42, null
  br i1 %43, label %44, label %lean_alloc_ctor.exit

44:                                               ; preds = %lean_dec.exit
  tail call void @lean_internal_panic_out_of_memory() #5
  unreachable

lean_alloc_ctor.exit:                             ; preds = %lean_dec.exit
  %45 = getelementptr inbounds nuw i8, ptr %42, i64 4
  store i32 1, ptr %42, align 4, !tbaa !4
  store i32 131096, ptr %45, align 4
  %46 = getelementptr inbounds nuw i8, ptr %42, i64 8
  store ptr %24, ptr %46, align 8, !tbaa !9
  %47 = getelementptr inbounds nuw i8, ptr %42, i64 16
  store ptr inttoptr (i64 1 to ptr), ptr %47, align 8, !tbaa !9
  br label %48

48:                                               ; preds = %lean_alloc_ctor.exit, %lean_dec.exit31
  %.sink = phi ptr [ %42, %lean_alloc_ctor.exit ], [ %1, %lean_dec.exit31 ]
  %49 = tail call ptr @lean_apply_7(ptr noundef %0, ptr noundef nonnull %.sink, ptr noundef %2, ptr noundef %3, ptr noundef %4, ptr noundef %5, ptr noundef %6, ptr noundef %7) #4
  ret ptr %49
}